; Function Attrs: nofree norecurse nosync nounwind sspstrong memory(argmem: readwrite) uwtable
define dso_local range(i32 0, 2) i32 @slow_bitmap_and(ptr noundef writeonly captures(none) %dst, ptr noundef readonly captures(none) %bitmap1, ptr noundef readonly captures(none) %bitmap2, i64 noundef %bits) local_unnamed_addr #1 {
entry:
  %sub = add i64 %bits, 63
  %div6 = lshr i64 %sub, 6
  %cmp7.not = icmp ult i64 %sub, 64
  br i1 %cmp7.not, label %for.end, label %for.body

for.body:                                         ; preds = %entry, %for.body
  %result.09 = phi i64 [ %or, %for.body ], [ 0, %entry ]
  %k.08 = phi i64 [ %inc, %for.body ], [ 0, %entry ]
  %arrayidx = getelementptr i64, ptr %bitmap1, i64 %k.08
  %0 = load i64, ptr %arrayidx, align 8
  %arrayidx1 = getelementptr i64, ptr %bitmap2, i64 %k.08
  %1 = load i64, ptr %arrayidx1, align 8
  %and = and i64 %1, %0
  %arrayidx2 = getelementptr i64, ptr %dst, i64 %k.08
  store i64 %and, ptr %arrayidx2, align 8
  %or = or i64 %and, %result.09
  %inc = add nuw nsw i64 %k.08, 1
  %exitcond.not = icmp eq i64 %inc, %div6
  br i1 %exitcond.not, label %for.end.loopexit, label %for.body, !llvm.loop !10

for.end.loopexit:                                 ; preds = %for.body
  %2 = icmp ne i64 %or, 0
  %3 = zext i1 %2 to i32
  br label %for.end

for.end:                                          ; preds = %for.end.loopexit, %entry
  %result.0.lcssa = phi i32 [ 0, %entry ], [ %3, %for.end.loopexit ]
  ret i32 %result.0.lcssa
}